target datalayout = "e-m:e-p270:32:32-p271:32:32-p272:64:64-i64:64-i128:128-f80:128-n8:16:32:64-S128"
target triple = "x86_64-pc-linux-gnu"

%struct.st__table = type { ptr, ptr, i32, i32, i32, i32, double, ptr }
%struct.st__table_entry = type { ptr, ptr, ptr }

; Function Attrs: inlinehint nounwind uwtable
define internal i32 @Abc_AbsInt(i32 noundef %0) #4 {
  %2 = alloca i32, align 4
  store i32 %0, ptr %2, align 4, !tbaa !7
  %3 = load i32, ptr %2, align 4, !tbaa !7
  %4 = icmp slt i32 %3, 0
  br i1 %4, label %5, label %8

5:                                                ; preds = %1
  %6 = load i32, ptr %2, align 4, !tbaa !7
  %7 = sub nsw i32 0, %6
  br label %10

8:                                                ; preds = %1
  %9 = load i32, ptr %2, align 4, !tbaa !7
  br label %10

10:                                               ; preds = %8, %5
  %11 = phi i32 [ %7, %5 ], [ %9, %8 ]
  ret i32 %11
}

; Function Attrs: nounwind uwtable
define i32 @st__add_direct(ptr noundef %0, ptr noundef %1, ptr noundef %2) #0 {
  %4 = alloca i32, align 4
  %5 = alloca ptr, align 8
  %6 = alloca ptr, align 8
  %7 = alloca ptr, align 8
  %8 = alloca i32, align 4
  %9 = alloca ptr, align 8
  %10 = alloca i32, align 4
  store ptr %0, ptr %5, align 8, !tbaa !11
  store ptr %1, ptr %6, align 8, !tbaa !32
  store ptr %2, ptr %7, align 8, !tbaa !32
  call void @llvm.lifetime.start.p0(i64 4, ptr %8) #6
  call void @llvm.lifetime.start.p0(i64 8, ptr %9) #6
  %11 = load ptr, ptr %5, align 8, !tbaa !11
  %12 = getelementptr inbounds nuw %struct.st__table, ptr %11, i32 0, i32 1
  %13 = load ptr, ptr %12, align 8, !tbaa !16
  %14 = icmp eq ptr %13, @st__ptrhash
  br i1 %14, label %15, label %25

15:                                               ; preds = %3
  %16 = load ptr, ptr %6, align 8, !tbaa !32
  %17 = ptrtoint ptr %16 to i64
  %18 = lshr i64 %17, 2
  %19 = load ptr, ptr %5, align 8, !tbaa !11
  %20 = getelementptr inbounds nuw %struct.st__table, ptr %19, i32 0, i32 2
  %21 = load i32, ptr %20, align 8, !tbaa !21
  %22 = sext i32 %21 to i64
  %23 = urem i64 %18, %22
  %24 = trunc i64 %23 to i32
  br label %50

25:                                               ; preds = %3
  %26 = load ptr, ptr %5, align 8, !tbaa !11
  %27 = getelementptr inbounds nuw %struct.st__table, ptr %26, i32 0, i32 1
  %28 = load ptr, ptr %27, align 8, !tbaa !16
  %29 = icmp eq ptr %28, @st__numhash
  br i1 %29, label %30, label %39

30:                                               ; preds = %25
  %31 = load ptr, ptr %6, align 8, !tbaa !32
  %32 = ptrtoint ptr %31 to i64
  %33 = trunc i64 %32 to i32
  %34 = call i32 @Abc_AbsInt(i32 noundef %33)
  %35 = load ptr, ptr %5, align 8, !tbaa !11
  %36 = getelementptr inbounds nuw %struct.st__table, ptr %35, i32 0, i32 2
  %37 = load i32, ptr %36, align 8, !tbaa !21
  %38 = srem i32 %34, %37
  br label %48

39:                                               ; preds = %25
  %40 = load ptr, ptr %5, align 8, !tbaa !11
  %41 = getelementptr inbounds nuw %struct.st__table, ptr %40, i32 0, i32 1
  %42 = load ptr, ptr %41, align 8, !tbaa !16
  %43 = load ptr, ptr %6, align 8, !tbaa !32
  %44 = load ptr, ptr %5, align 8, !tbaa !11
  %45 = getelementptr inbounds nuw %struct.st__table, ptr %44, i32 0, i32 2
  %46 = load i32, ptr %45, align 8, !tbaa !21
  %47 = call i32 %42(ptr noundef %43, i32 noundef %46)
  br label %48

48:                                               ; preds = %39, %30
  %49 = phi i32 [ %38, %30 ], [ %47, %39 ]
  br label %50

50:                                               ; preds = %48, %15
  %51 = phi i32 [ %24, %15 ], [ %49, %48 ]
  store i32 %51, ptr %8, align 4, !tbaa !7
  %52 = load ptr, ptr %5, align 8, !tbaa !11
  %53 = getelementptr inbounds nuw %struct.st__table, ptr %52, i32 0, i32 3
  %54 = load i32, ptr %53, align 4, !tbaa !17
  %55 = load ptr, ptr %5, align 8, !tbaa !11
  %56 = getelementptr inbounds nuw %struct.st__table, ptr %55, i32 0, i32 2
  %57 = load i32, ptr %56, align 8, !tbaa !21
  %58 = sdiv i32 %54, %57
  %59 = load ptr, ptr %5, align 8, !tbaa !11
  %60 = getelementptr inbounds nuw %struct.st__table, ptr %59, i32 0, i32 4
  %61 = load i32, ptr %60, align 8, !tbaa !18
  %62 = icmp sge i32 %58, %61
  br i1 %62, label %63, label %69

63:                                               ; preds = %50
  %64 = load ptr, ptr %5, align 8, !tbaa !11
  %65 = call i32 @rehash(ptr noundef %64)
  %66 = icmp eq i32 %65, -10000
  br i1 %66, label %67, label %68

67:                                               ; preds = %63
  store i32 -10000, ptr %4, align 4
  store i32 1, ptr %10, align 4
  br label %142

68:                                               ; preds = %63
  br label %69

69:                                               ; preds = %68, %50
  %70 = load ptr, ptr %5, align 8, !tbaa !11
  %71 = getelementptr inbounds nuw %struct.st__table, ptr %70, i32 0, i32 1
  %72 = load ptr, ptr %71, align 8, !tbaa !16
  %73 = icmp eq ptr %72, @st__ptrhash
  br i1 %73, label %74, label %84

74:                                               ; preds = %69
  %75 = load ptr, ptr %6, align 8, !tbaa !32
  %76 = ptrtoint ptr %75 to i64
  %77 = lshr i64 %76, 2
  %78 = load ptr, ptr %5, align 8, !tbaa !11
  %79 = getelementptr inbounds nuw %struct.st__table, ptr %78, i32 0, i32 2
  %80 = load i32, ptr %79, align 8, !tbaa !21
  %81 = sext i32 %80 to i64
  %82 = urem i64 %77, %81
  %83 = trunc i64 %82 to i32
  br label %109

84:                                               ; preds = %69
  %85 = load ptr, ptr %5, align 8, !tbaa !11
  %86 = getelementptr inbounds nuw %struct.st__table, ptr %85, i32 0, i32 1
  %87 = load ptr, ptr %86, align 8, !tbaa !16
  %88 = icmp eq ptr %87, @st__numhash
  br i1 %88, label %89, label %98

89:                                               ; preds = %84
  %90 = load ptr, ptr %6, align 8, !tbaa !32
  %91 = ptrtoint ptr %90 to i64
  %92 = trunc i64 %91 to i32
  %93 = call i32 @Abc_AbsInt(i32 noundef %92)
  %94 = load ptr, ptr %5, align 8, !tbaa !11
  %95 = getelementptr inbounds nuw %struct.st__table, ptr %94, i32 0, i32 2
  %96 = load i32, ptr %95, align 8, !tbaa !21
  %97 = srem i32 %93, %96
  br label %107

98:                                               ; preds = %84
  %99 = load ptr, ptr %5, align 8, !tbaa !11
  %100 = getelementptr inbounds nuw %struct.st__table, ptr %99, i32 0, i32 1
  %101 = load ptr, ptr %100, align 8, !tbaa !16
  %102 = load ptr, ptr %6, align 8, !tbaa !32
  %103 = load ptr, ptr %5, align 8, !tbaa !11
  %104 = getelementptr inbounds nuw %struct.st__table, ptr %103, i32 0, i32 2
  %105 = load i32, ptr %104, align 8, !tbaa !21
  %106 = call i32 %101(ptr noundef %102, i32 noundef %105)
  br label %107

107:                                              ; preds = %98, %89
  %108 = phi i32 [ %97, %89 ], [ %106, %98 ]
  br label %109

109:                                              ; preds = %107, %74
  %110 = phi i32 [ %83, %74 ], [ %108, %107 ]
  store i32 %110, ptr %8, align 4, !tbaa !7
  %111 = call noalias ptr @malloc(i64 noundef 24) #7
  store ptr %111, ptr %9, align 8, !tbaa !23
  %112 = load ptr, ptr %9, align 8, !tbaa !23
  %113 = icmp eq ptr %112, null
  br i1 %113, label %114, label %115

114:                                              ; preds = %109
  store i32 -10000, ptr %4, align 4
  store i32 1, ptr %10, align 4
  br label %142

115:                                              ; preds = %109
  %116 = load ptr, ptr %6, align 8, !tbaa !32
  %117 = load ptr, ptr %9, align 8, !tbaa !23
  %118 = getelementptr inbounds nuw %struct.st__table_entry, ptr %117, i32 0, i32 0
  store ptr %116, ptr %118, align 8, !tbaa !36
  %119 = load ptr, ptr %7, align 8, !tbaa !32
  %120 = load ptr, ptr %9, align 8, !tbaa !23
  %121 = getelementptr inbounds nuw %struct.st__table_entry, ptr %120, i32 0, i32 1
  store ptr %119, ptr %121, align 8, !tbaa !38
  %122 = load ptr, ptr %5, align 8, !tbaa !11
  %123 = getelementptr inbounds nuw %struct.st__table, ptr %122, i32 0, i32 7
  %124 = load ptr, ptr %123, align 8, !tbaa !22
  %125 = load i32, ptr %8, align 4, !tbaa !7
  %126 = sext i32 %125 to i64
  %127 = getelementptr inbounds ptr, ptr %124, i64 %126
  %128 = load ptr, ptr %127, align 8, !tbaa !23
  %129 = load ptr, ptr %9, align 8, !tbaa !23
  %130 = getelementptr inbounds nuw %struct.st__table_entry, ptr %129, i32 0, i32 2
  store ptr %128, ptr %130, align 8, !tbaa !27
  %131 = load ptr, ptr %9, align 8, !tbaa !23
  %132 = load ptr, ptr %5, align 8, !tbaa !11
  %133 = getelementptr inbounds nuw %struct.st__table, ptr %132, i32 0, i32 7
  %134 = load ptr, ptr %133, align 8, !tbaa !22
  %135 = load i32, ptr %8, align 4, !tbaa !7
  %136 = sext i32 %135 to i64
  %137 = getelementptr inbounds ptr, ptr %134, i64 %136
  store ptr %131, ptr %137, align 8, !tbaa !23
  %138 = load ptr, ptr %5, align 8, !tbaa !11
  %139 = getelementptr inbounds nuw %struct.st__table, ptr %138, i32 0, i32 3
  %140 = load i32, ptr %139, align 4, !tbaa !17
  %141 = add nsw i32 %140, 1
  store i32 %141, ptr %139, align 4, !tbaa !17
  store i32 1, ptr %4, align 4
  store i32 1, ptr %10, align 4
  br label %142

142:                                              ; preds = %115, %114, %67
  call void @llvm.lifetime.end.p0(i64 8, ptr %9) #6
  call void @llvm.lifetime.end.p0(i64 4, ptr %8) #6
  %143 = load i32, ptr %4, align 4
  ret i32 %143
}