; Function Attrs: nounwind uwtable
define range(i32 -10000, 2) i32 @st__add_direct(ptr noundef captures(none) %0, ptr noundef %1, ptr noundef %2) local_unnamed_addr #3 {
  %4 = getelementptr inbounds nuw i8, ptr %0, i64 8
  %5 = load ptr, ptr %4, align 8, !tbaa !11
  %6 = icmp eq ptr %5, @st__ptrhash
  %7 = icmp eq ptr %5, @st__numhash
  %or.cond = or i1 %6, %7
  br i1 %or.cond, label %12, label %8

8:                                                ; preds = %3
  %9 = getelementptr inbounds nuw i8, ptr %0, i64 16
  %10 = load i32, ptr %9, align 8, !tbaa !16
  %11 = tail call i32 %5(ptr noundef %1, i32 noundef %10) #14
  br label %12

12:                                               ; preds = %3, %8
  %13 = getelementptr inbounds nuw i8, ptr %0, i64 20
  %14 = load i32, ptr %13, align 4, !tbaa !12
  %15 = getelementptr inbounds nuw i8, ptr %0, i64 16
  %16 = load i32, ptr %15, align 8, !tbaa !16
  %17 = sdiv i32 %14, %16
  %18 = getelementptr inbounds nuw i8, ptr %0, i64 24
  %19 = load i32, ptr %18, align 8, !tbaa !13
  %.not = icmp slt i32 %17, %19
  br i1 %.not, label %23, label %20

20:                                               ; preds = %12
  %21 = tail call fastcc i32 @rehash(ptr noundef nonnull %0)
  %22 = icmp eq i32 %21, -10000
  br i1 %22, label %58, label %23

23:                                               ; preds = %20, %12
  %24 = load ptr, ptr %4, align 8, !tbaa !11
  %25 = icmp eq ptr %24, @st__ptrhash
  br i1 %25, label %26, label %33

26:                                               ; preds = %23
  %27 = ptrtoint ptr %1 to i64
  %28 = lshr i64 %27, 2
  %29 = load i32, ptr %15, align 8, !tbaa !16
  %30 = sext i32 %29 to i64
  %31 = urem i64 %28, %30
  %32 = trunc i64 %31 to i32
  br label %44

33:                                               ; preds = %23
  %34 = icmp eq ptr %24, @st__numhash
  br i1 %34, label %35, label %41

35:                                               ; preds = %33
  %36 = ptrtoint ptr %1 to i64
  %37 = trunc i64 %36 to i32
  %38 = tail call range(i32 0, -2147483648) i32 @llvm.abs.i32(i32 %37, i1 true)
  %39 = load i32, ptr %15, align 8, !tbaa !16
  %40 = srem i32 %38, %39
  br label %44

41:                                               ; preds = %33
  %42 = load i32, ptr %15, align 8, !tbaa !16
  %43 = tail call i32 %24(ptr noundef %1, i32 noundef %42) #14
  br label %44

44:                                               ; preds = %35, %41, %26
  %45 = phi i32 [ %32, %26 ], [ %40, %35 ], [ %43, %41 ]
  %46 = tail call noalias dereferenceable_or_null(24) ptr @malloc(i64 noundef 24) #13
  %47 = icmp eq ptr %46, null
  br i1 %47, label %58, label %48

48:                                               ; preds = %44
  store ptr %1, ptr %46, align 8, !tbaa !26
  %49 = getelementptr inbounds nuw i8, ptr %46, i64 8
  store ptr %2, ptr %49, align 8, !tbaa !28
  %50 = getelementptr inbounds nuw i8, ptr %0, i64 40
  %51 = load ptr, ptr %50, align 8, !tbaa !17
  %52 = sext i32 %45 to i64
  %53 = getelementptr inbounds ptr, ptr %51, i64 %52
  %54 = load ptr, ptr %53, align 8, !tbaa !18
  %55 = getelementptr inbounds nuw i8, ptr %46, i64 16
  store ptr %54, ptr %55, align 8, !tbaa !20
  store ptr %46, ptr %53, align 8, !tbaa !18
  %56 = load i32, ptr %13, align 4, !tbaa !12
  %57 = add nsw i32 %56, 1
  store i32 %57, ptr %13, align 4, !tbaa !12
  br label %58

58:                                               ; preds = %44, %20, %48
  %.0 = phi i32 [ 1, %48 ], [ -10000, %20 ], [ -10000, %44 ]
  ret i32 %.0
}